; Function Attrs: nounwind sspstrong uwtable
define internal void @replication_do_checkpoint(ptr noundef readonly captures(none) %rs, ptr noundef %errp) #0 {
entry:
  %0 = load ptr, ptr %rs, align 8
  %call = tail call ptr @bdrv_get_aio_context(ptr noundef %0) #8
  tail call void @aio_context_acquire(ptr noundef %call) #8
  %opaque1 = getelementptr inbounds nuw i8, ptr %0, i64 24
  %1 = load ptr, ptr %opaque1, align 8
  %stage = getelementptr inbounds nuw i8, ptr %1, i64 4
  %2 = load i32, ptr %stage, align 4
  switch i32 %2, label %if.end [
    i32 4, label %return
    i32 2, label %return
  ]

if.end:                                           ; preds = %entry
  %3 = load i32, ptr %1, align 8
  %cmp4 = icmp eq i32 %3, 1
  br i1 %cmp4, label %if.then5, label %return

if.then5:                                         ; preds = %if.end
  tail call fastcc void @secondary_do_checkpoint(ptr noundef nonnull %0, ptr noundef %errp)
  br label %return

return:                                           ; preds = %if.end, %if.then5, %entry, %entry
  tail call void @aio_context_release(ptr noundef %call) #8
  ret void
}